; Function Attrs: mustprogress uwtable
define internal fastcc void @_ZZNK8facebook5velox9functions12_GLOBAL__N_121FindFirstFunctionBase7doApplyIZNKS2_17FindFirstFunction5applyERKNS0_17SelectivityVectorERSt6vectorISt10shared_ptrINS0_10BaseVectorEESaISC_EERKSA_IKNS0_4TypeEERNS0_4exec7EvalCtxERSC_EUliiE_ZNKS5_5applyES8_SF_SK_SN_SO_EUliE_EEvS8_RKSA_INS0_11ArrayVectorEERKSC_RNS0_14FunctionVectorESN_T_T0_ENKUliE0_clEi(ptr nocapture noundef nonnull readonly align 8 dereferenceable(72) %this, i32 noundef %row) unnamed_addr #0 align 2 {
entry:
  %0 = load ptr, ptr %this, align 8
  %1 = load ptr, ptr %0, align 8
  %cmp.not = icmp eq ptr %1, null
  %.pre = sext i32 %row to i64
  br i1 %cmp.not, label %if.else, label %land.lhs.true

land.lhs.true:                                    ; preds = %entry
  %div2.i.i = lshr i64 %.pre, 6
  %arrayidx.i.i = getelementptr inbounds i64, ptr %1, i64 %div2.i.i
  %2 = load i64, ptr %arrayidx.i.i, align 8
  %and.i.i = and i64 %.pre, 63
  %shl.i.i = shl nuw i64 1, %and.i.i
  %and2.i.i = and i64 %2, %shl.i.i
  %tobool.i.not.i = icmp eq i64 %and2.i.i, 0
  br i1 %tobool.i.not.i, label %if.then, label %if.else

if.then:                                          ; preds = %land.lhs.true
  %3 = getelementptr inbounds i8, ptr %this, i64 8
  %4 = load ptr, ptr %3, align 8
  tail call fastcc void @_ZZNK8facebook5velox9functions12_GLOBAL__N_117FindFirstFunction5applyERKNS0_17SelectivityVectorERSt6vectorISt10shared_ptrINS0_10BaseVectorEESaISA_EERKS8_IKNS0_4TypeEERNS0_4exec7EvalCtxERSA_ENKUliE_clEi(ptr noundef nonnull align 8 dereferenceable(32) %4, i32 noundef %row)
  br label %if.end10

if.else:                                          ; preds = %entry, %land.lhs.true
  %5 = getelementptr inbounds i8, ptr %this, i64 24
  %6 = load ptr, ptr %5, align 8
  %7 = getelementptr inbounds i8, ptr %this, i64 32
  %8 = load ptr, ptr %7, align 8
  %9 = load ptr, ptr %8, align 8
  %arrayidx = getelementptr inbounds i32, ptr %9, i64 %.pre
  %10 = load i32, ptr %arrayidx, align 4
  %11 = getelementptr inbounds i8, ptr %this, i64 40
  %12 = load ptr, ptr %11, align 8
  %13 = load ptr, ptr %12, align 8
  %arrayidx3 = getelementptr inbounds i32, ptr %13, i64 %.pre
  %14 = load i32, ptr %arrayidx3, align 4
  %15 = getelementptr inbounds i8, ptr %this, i64 48
  %16 = load ptr, ptr %15, align 8
  %17 = getelementptr inbounds i8, ptr %this, i64 56
  %18 = load ptr, ptr %17, align 8
  %call4 = tail call fastcc i64 @_ZNK8facebook5velox9functions12_GLOBAL__N_121FindFirstFunctionBase14findFirstMatchERNS0_4exec7EvalCtxEiiiRKSt10shared_ptrINS0_10FlatVectorIS7_IvEEEERKNS4_18LocalDecodedVectorE(ptr noundef nonnull align 8 dereferenceable(104) %6, i32 noundef %row, i32 noundef %10, i32 noundef %14, ptr noundef nonnull align 8 dereferenceable(16) %16, ptr noundef nonnull align 8 dereferenceable(16) %18)
  %firstMatchingIndex.sroa.0.0.extract.trunc = trunc i64 %call4 to i32
  %19 = and i64 %call4, 4294967296
  %tobool.i.i.not = icmp eq i64 %19, 0
  br i1 %tobool.i.i.not, label %if.else9, label %_ZNRSt8optionalIiE5valueEv.exit

_ZNRSt8optionalIiE5valueEv.exit:                  ; preds = %if.else
  %20 = getelementptr inbounds i8, ptr %this, i64 64
  %21 = load ptr, ptr %20, align 8
  %22 = load ptr, ptr %21, align 8
  %23 = load ptr, ptr %22, align 8
  %elements_.i.i = getelementptr inbounds i8, ptr %23, i64 136
  %24 = load ptr, ptr %elements_.i.i, align 8
  %vtable.i = load ptr, ptr %24, align 8
  %vfn.i = getelementptr inbounds i8, ptr %vtable.i, i64 32
  %25 = load ptr, ptr %vfn.i, align 8
  %call4.i = tail call noundef zeroext i1 %25(ptr noundef nonnull align 8 dereferenceable(99) %24, i32 noundef %firstMatchingIndex.sroa.0.0.extract.trunc)
  br i1 %call4.i, label %if.then.i, label %_ZZNK8facebook5velox9functions12_GLOBAL__N_117FindFirstFunction5applyERKNS0_17SelectivityVectorERSt6vectorISt10shared_ptrINS0_10BaseVectorEESaISA_EERKS8_IKNS0_4TypeEERNS0_4exec7EvalCtxERSA_ENKUliiE_clEii.exit

if.then.i:                                        ; preds = %_ZNRSt8optionalIiE5valueEv.exit
  tail call void @llvm.trap()
  unreachable

_ZZNK8facebook5velox9functions12_GLOBAL__N_117FindFirstFunction5applyERKNS0_17SelectivityVectorERSt6vectorISt10shared_ptrINS0_10BaseVectorEESaISA_EERKS8_IKNS0_4TypeEERNS0_4exec7EvalCtxERSA_ENKUliiE_clEii.exit: ; preds = %_ZNRSt8optionalIiE5valueEv.exit
  %26 = getelementptr inbounds i8, ptr %21, i64 16
  %27 = load ptr, ptr %26, align 8
  %28 = load ptr, ptr %27, align 8
  %arrayidx.i = getelementptr inbounds i32, ptr %28, i64 %.pre
  store i32 %firstMatchingIndex.sroa.0.0.extract.trunc, ptr %arrayidx.i, align 4
  br label %if.end10

if.else9:                                         ; preds = %if.else
  %29 = getelementptr inbounds i8, ptr %this, i64 8
  %30 = load ptr, ptr %29, align 8
  tail call fastcc void @_ZZNK8facebook5velox9functions12_GLOBAL__N_117FindFirstFunction5applyERKNS0_17SelectivityVectorERSt6vectorISt10shared_ptrINS0_10BaseVectorEESaISA_EERKS8_IKNS0_4TypeEERNS0_4exec7EvalCtxERSA_ENKUliE_clEi(ptr noundef nonnull align 8 dereferenceable(32) %30, i32 noundef %row)
  br label %if.end10

if.end10:                                         ; preds = %_ZZNK8facebook5velox9functions12_GLOBAL__N_117FindFirstFunction5applyERKNS0_17SelectivityVectorERSt6vectorISt10shared_ptrINS0_10BaseVectorEESaISA_EERKS8_IKNS0_4TypeEERNS0_4exec7EvalCtxERSA_ENKUliiE_clEii.exit, %if.else9, %if.then
  ret void
}